target datalayout = "e-m:e-p270:32:32-p271:32:32-p272:64:64-i64:64-i128:128-f80:128-n8:16:32:64-S128"
target triple = "x86_64-pc-linux-gnu"

%struct.Qureg = type { i32, i32, i32, i64, i64, i32, i32, %struct.ComplexArray, %struct.ComplexArray, %struct.ComplexArray, ptr, ptr, ptr, ptr, ptr, ptr }
%struct.ComplexArray = type { ptr, ptr }
%struct.QASMLogger = type { ptr, i32, i32, i32 }
%struct.Complex = type { double, double }
%struct.ComplexMatrix2 = type { [2 x [2 x double]], [2 x [2 x double]] }

@.str.26 = private unnamed_addr constant [72 x i8] c"Restoring the discarded global phase of the previous controlled unitary\00", align 1

; Function Attrs: nounwind uwtable
define void @qasm_recordControlledUnitary(ptr noundef byval(%struct.Qureg) align 8 %0, ptr noundef byval(%struct.ComplexMatrix2) align 8 %1, i32 noundef %2, i32 noundef %3) #0 {
  %5 = alloca i32, align 4
  %6 = alloca i32, align 4
  %7 = alloca %struct.Complex, align 8
  %8 = alloca %struct.Complex, align 8
  %9 = alloca double, align 8
  %10 = alloca double, align 8
  %11 = alloca double, align 8
  %12 = alloca double, align 8
  %13 = alloca [1 x i32], align 4
  %14 = alloca [3 x double], align 16
  %15 = alloca [1 x double], align 8
  store i32 %2, ptr %5, align 4, !tbaa !25
  store i32 %3, ptr %6, align 4, !tbaa !25
  %16 = getelementptr inbounds nuw %struct.Qureg, ptr %0, i32 0, i32 15
  %17 = load ptr, ptr %16, align 8, !tbaa !10
  %18 = getelementptr inbounds nuw %struct.QASMLogger, ptr %17, i32 0, i32 3
  %19 = load i32, ptr %18, align 8, !tbaa !17
  %20 = icmp ne i32 %19, 0
  br i1 %20, label %22, label %21

21:                                               ; preds = %4
  br label %43

22:                                               ; preds = %4
  call void @llvm.lifetime.start.p0(i64 16, ptr %7) #7
  call void @llvm.lifetime.start.p0(i64 16, ptr %8) #7
  call void @llvm.lifetime.start.p0(i64 8, ptr %9) #7
  call void @getComplexPairAndPhaseFromUnitary(ptr noundef byval(%struct.ComplexMatrix2) align 8 %1, ptr noundef %7, ptr noundef %8, ptr noundef %9)
  call void @llvm.lifetime.start.p0(i64 8, ptr %10) #7
  call void @llvm.lifetime.start.p0(i64 8, ptr %11) #7
  call void @llvm.lifetime.start.p0(i64 8, ptr %12) #7
  %23 = getelementptr inbounds nuw { double, double }, ptr %7, i32 0, i32 0
  %24 = load double, ptr %23, align 8
  %25 = getelementptr inbounds nuw { double, double }, ptr %7, i32 0, i32 1
  %26 = load double, ptr %25, align 8
  %27 = getelementptr inbounds nuw { double, double }, ptr %8, i32 0, i32 0
  %28 = load double, ptr %27, align 8
  %29 = getelementptr inbounds nuw { double, double }, ptr %8, i32 0, i32 1
  %30 = load double, ptr %29, align 8
  call void @getZYZRotAnglesFromComplexPair(double %24, double %26, double %28, double %30, ptr noundef %10, ptr noundef %11, ptr noundef %12)
  call void @llvm.lifetime.start.p0(i64 4, ptr %13) #7
  %31 = load i32, ptr %5, align 4, !tbaa !25
  store i32 %31, ptr %13, align 4, !tbaa !25
  call void @llvm.lifetime.start.p0(i64 24, ptr %14) #7
  %32 = load double, ptr %10, align 8, !tbaa !29
  store double %32, ptr %14, align 8, !tbaa !29
  %33 = getelementptr inbounds double, ptr %14, i64 1
  %34 = load double, ptr %11, align 8, !tbaa !29
  store double %34, ptr %33, align 8, !tbaa !29
  %35 = getelementptr inbounds double, ptr %14, i64 2
  %36 = load double, ptr %12, align 8, !tbaa !29
  store double %36, ptr %35, align 8, !tbaa !29
  %37 = getelementptr inbounds [1 x i32], ptr %13, i64 0, i64 0
  %38 = load i32, ptr %6, align 4, !tbaa !25
  %39 = getelementptr inbounds [3 x double], ptr %14, i64 0, i64 0
  call void @addGateToQASM(ptr noundef byval(%struct.Qureg) align 8 %0, i32 noundef 10, ptr noundef %37, i32 noundef 1, i32 noundef %38, ptr noundef %39, i32 noundef 3)
  call void (ptr, ptr, ...) @qasm_recordComment(ptr noundef byval(%struct.Qureg) align 8 %0, ptr noundef @.str.26)
  call void @llvm.lifetime.start.p0(i64 8, ptr %15) #7
  %40 = load double, ptr %9, align 8, !tbaa !29
  store double %40, ptr %15, align 8, !tbaa !29
  %41 = load i32, ptr %6, align 4, !tbaa !25
  %42 = getelementptr inbounds [1 x double], ptr %15, i64 0, i64 0
  call void @addGateToQASM(ptr noundef byval(%struct.Qureg) align 8 %0, i32 noundef 8, ptr noundef null, i32 noundef 0, i32 noundef %41, ptr noundef %42, i32 noundef 1)
  call void @llvm.lifetime.end.p0(i64 8, ptr %15) #7
  call void @llvm.lifetime.end.p0(i64 24, ptr %14) #7
  call void @llvm.lifetime.end.p0(i64 4, ptr %13) #7
  call void @llvm.lifetime.end.p0(i64 8, ptr %12) #7
  call void @llvm.lifetime.end.p0(i64 8, ptr %11) #7
  call void @llvm.lifetime.end.p0(i64 8, ptr %10) #7
  call void @llvm.lifetime.end.p0(i64 8, ptr %9) #7
  call void @llvm.lifetime.end.p0(i64 16, ptr %8) #7
  call void @llvm.lifetime.end.p0(i64 16, ptr %7) #7
  br label %43

43:                                               ; preds = %22, %21
  ret void
}