; Function Attrs: nounwind uwtable
define void @qasm_recordControlledUnitary(ptr noundef readonly byval(%struct.Qureg) align 8 captures(none) %0, ptr noundef readonly byval(%struct.ComplexMatrix2) align 8 captures(none) %1, i32 noundef %2, i32 noundef %3) local_unnamed_addr #0 {
  %5 = alloca %struct.Complex, align 8
  %6 = alloca %struct.Complex, align 8
  %7 = alloca double, align 8
  %8 = alloca double, align 8
  %9 = alloca double, align 8
  %10 = alloca double, align 8
  %11 = alloca [1 x i32], align 4
  %12 = alloca [3 x double], align 16
  %13 = alloca [1 x double], align 8
  %14 = getelementptr inbounds nuw i8, ptr %0, i64 128
  %15 = load ptr, ptr %14, align 8, !tbaa !4
  %16 = getelementptr inbounds nuw i8, ptr %15, i64 16
  %17 = load i32, ptr %16, align 8, !tbaa !14
  %.not = icmp eq i32 %17, 0
  br i1 %.not, label %31, label %18

18:                                               ; preds = %4
  call void @llvm.lifetime.start.p0(i64 16, ptr nonnull %5) #16
  call void @llvm.lifetime.start.p0(i64 16, ptr nonnull %6) #16
  call void @llvm.lifetime.start.p0(i64 8, ptr nonnull %7) #16
  call void @getComplexPairAndPhaseFromUnitary(ptr noundef nonnull byval(%struct.ComplexMatrix2) align 8 %1, ptr noundef nonnull %5, ptr noundef nonnull %6, ptr noundef nonnull %7) #16
  call void @llvm.lifetime.start.p0(i64 8, ptr nonnull %8) #16
  call void @llvm.lifetime.start.p0(i64 8, ptr nonnull %9) #16
  call void @llvm.lifetime.start.p0(i64 8, ptr nonnull %10) #16
  %19 = load double, ptr %5, align 8
  %20 = getelementptr inbounds nuw i8, ptr %5, i64 8
  %21 = load double, ptr %20, align 8
  %22 = load double, ptr %6, align 8
  %23 = getelementptr inbounds nuw i8, ptr %6, i64 8
  %24 = load double, ptr %23, align 8
  call void @getZYZRotAnglesFromComplexPair(double %19, double %21, double %22, double %24, ptr noundef nonnull %8, ptr noundef nonnull %9, ptr noundef nonnull %10) #16
  call void @llvm.lifetime.start.p0(i64 4, ptr nonnull %11) #16
  store i32 %2, ptr %11, align 4, !tbaa !24
  call void @llvm.lifetime.start.p0(i64 24, ptr nonnull %12) #16
  %25 = load double, ptr %8, align 8, !tbaa !22
  store double %25, ptr %12, align 16, !tbaa !22
  %26 = getelementptr inbounds nuw i8, ptr %12, i64 8
  %27 = load double, ptr %9, align 8, !tbaa !22
  store double %27, ptr %26, align 8, !tbaa !22
  %28 = getelementptr inbounds nuw i8, ptr %12, i64 16
  %29 = load double, ptr %10, align 8, !tbaa !22
  store double %29, ptr %28, align 16, !tbaa !22
  call void @addGateToQASM(ptr noundef nonnull byval(%struct.Qureg) align 8 %0, i32 noundef 10, ptr noundef nonnull %11, i32 noundef 1, i32 noundef %3, ptr noundef nonnull %12, i32 noundef 3)
  call void (ptr, ptr, ...) @qasm_recordComment(ptr noundef nonnull byval(%struct.Qureg) align 8 %0, ptr noundef nonnull @.str.26)
  call void @llvm.lifetime.start.p0(i64 8, ptr nonnull %13) #16
  %30 = load double, ptr %7, align 8, !tbaa !22
  store double %30, ptr %13, align 8, !tbaa !22
  call void @addGateToQASM(ptr noundef nonnull byval(%struct.Qureg) align 8 %0, i32 noundef 8, ptr noundef null, i32 noundef 0, i32 noundef %3, ptr noundef nonnull %13, i32 noundef 1)
  call void @llvm.lifetime.end.p0(i64 8, ptr nonnull %13) #16
  call void @llvm.lifetime.end.p0(i64 24, ptr nonnull %12) #16
  call void @llvm.lifetime.end.p0(i64 4, ptr nonnull %11) #16
  call void @llvm.lifetime.end.p0(i64 8, ptr nonnull %10) #16
  call void @llvm.lifetime.end.p0(i64 8, ptr nonnull %9) #16
  call void @llvm.lifetime.end.p0(i64 8, ptr nonnull %8) #16
  call void @llvm.lifetime.end.p0(i64 8, ptr nonnull %7) #16
  call void @llvm.lifetime.end.p0(i64 16, ptr nonnull %6) #16
  call void @llvm.lifetime.end.p0(i64 16, ptr nonnull %5) #16
  br label %31

31:                                               ; preds = %4, %18
  ret void
}